target datalayout = "e-m:e-p270:32:32-p271:32:32-p272:64:64-i64:64-i128:128-f80:128-n8:16:32:64-S128"
target triple = "x86_64-pc-linux-gnu"

%struct.lua_State = type { %struct.GCRef, i8, i8, i8, i8, %struct.MRef, %struct.GCRef, ptr, ptr, %struct.MRef, %struct.MRef, %struct.GCRef, %struct.GCRef, ptr, i32 }
%struct.MRef = type { i64 }
%struct.GCRef = type { i64 }
%union.TValue = type { i64 }

; Function Attrs: nounwind uwtable
define hidden double @lj_lib_checknum(ptr noundef %0, i32 noundef %1) #0 {
  %3 = alloca ptr, align 8
  %4 = alloca i32, align 4
  %5 = alloca ptr, align 8
  store ptr %0, ptr %3, align 8, !tbaa !4
  store i32 %1, ptr %4, align 4, !tbaa !24
  call void @llvm.lifetime.start.p0(i64 8, ptr %5) #9
  %6 = load ptr, ptr %3, align 8, !tbaa !4
  %7 = getelementptr inbounds nuw %struct.lua_State, ptr %6, i32 0, i32 7
  %8 = load ptr, ptr %7, align 8, !tbaa !29
  %9 = load i32, ptr %4, align 4, !tbaa !24
  %10 = sext i32 %9 to i64
  %11 = getelementptr inbounds %union.TValue, ptr %8, i64 %10
  %12 = getelementptr inbounds %union.TValue, ptr %11, i64 -1
  store ptr %12, ptr %5, align 8, !tbaa !48
  %13 = load ptr, ptr %5, align 8, !tbaa !48
  %14 = load ptr, ptr %3, align 8, !tbaa !4
  %15 = getelementptr inbounds nuw %struct.lua_State, ptr %14, i32 0, i32 8
  %16 = load ptr, ptr %15, align 8, !tbaa !28
  %17 = icmp ult ptr %13, %16
  br i1 %17, label %18, label %39

18:                                               ; preds = %2
  %19 = load ptr, ptr %5, align 8, !tbaa !48
  %20 = load i64, ptr %19, align 8, !tbaa !23
  %21 = ashr i64 %20, 47
  %22 = trunc i64 %21 to i32
  %23 = icmp ule i32 %22, -14
  br i1 %23, label %42, label %24

24:                                               ; preds = %18
  %25 = load ptr, ptr %5, align 8, !tbaa !48
  %26 = load i64, ptr %25, align 8, !tbaa !23
  %27 = ashr i64 %26, 47
  %28 = trunc i64 %27 to i32
  %29 = icmp eq i32 %28, -5
  br i1 %29, label %30, label %39

30:                                               ; preds = %24
  %31 = load ptr, ptr %5, align 8, !tbaa !48
  %32 = getelementptr inbounds nuw %struct.GCRef, ptr %31, i32 0, i32 0
  %33 = load i64, ptr %32, align 8, !tbaa !23
  %34 = and i64 %33, 140737488355327
  %35 = inttoptr i64 %34 to ptr
  %36 = load ptr, ptr %5, align 8, !tbaa !48
  %37 = call i32 @lj_strscan_num(ptr noundef %35, ptr noundef %36)
  %38 = icmp ne i32 %37, 0
  br i1 %38, label %42, label %39

39:                                               ; preds = %30, %24, %2
  %40 = load ptr, ptr %3, align 8, !tbaa !4
  %41 = load i32, ptr %4, align 4, !tbaa !24
  call void @lj_err_argt(ptr noundef %40, i32 noundef %41, i32 noundef 3) #10
  unreachable

42:                                               ; preds = %30, %18
  %43 = load ptr, ptr %5, align 8, !tbaa !48
  %44 = load double, ptr %43, align 8, !tbaa !23
  call void @llvm.lifetime.end.p0(i64 8, ptr %5) #9
  ret double %44
}