; Function Attrs: nounwind uwtable
define hidden double @lj_lib_checknum(ptr noundef %0, i32 noundef %1) local_unnamed_addr #0 {
  %3 = getelementptr inbounds nuw i8, ptr %0, i64 32
  %4 = load ptr, ptr %3, align 8, !tbaa !17
  %5 = sext i32 %1 to i64
  %6 = getelementptr inbounds %union.TValue, ptr %4, i64 %5
  %7 = getelementptr inbounds i8, ptr %6, i64 -8
  %8 = getelementptr inbounds nuw i8, ptr %0, i64 40
  %9 = load ptr, ptr %8, align 8, !tbaa !16
  %10 = icmp ult ptr %7, %9
  br i1 %10, label %11, label %22

11:                                               ; preds = %2
  %12 = load i64, ptr %7, align 8
  %13 = ashr i64 %12, 47
  %14 = icmp ult i64 %13, -13
  %15 = bitcast i64 %12 to double
  br i1 %14, label %23, label %16

16:                                               ; preds = %11
  %17 = icmp eq i64 %13, -5
  br i1 %17, label %18, label %22

18:                                               ; preds = %16
  %19 = and i64 %12, 140737488355327
  %20 = inttoptr i64 %19 to ptr
  %21 = tail call i32 @lj_strscan_num(ptr noundef %20, ptr noundef nonnull %7) #8
  %.not = icmp eq i32 %21, 0
  br i1 %.not, label %22, label %._crit_edge

._crit_edge:                                      ; preds = %18
  %.pre = load double, ptr %7, align 8, !tbaa !14
  br label %23

22:                                               ; preds = %18, %16, %2
  tail call void @lj_err_argt(ptr noundef nonnull %0, i32 noundef %1, i32 noundef 3) #9
  unreachable

23:                                               ; preds = %._crit_edge, %11
  %24 = phi double [ %.pre, %._crit_edge ], [ %15, %11 ]
  ret double %24
}